; Function Attrs: mustprogress uwtable
define noundef i32 @_ZNK3gmx4Bias25numEnergySubblocksToWriteEv(ptr nocapture noundef nonnull readonly align 8 dereferenceable(556) %0) local_unnamed_addr #0 align 2 {
  %2 = getelementptr inbounds i8, ptr %0, i64 496
  %3 = load ptr, ptr %2, align 8
  %.not = icmp eq ptr %3, null
  br i1 %.not, label %4, label %5

4:                                                ; preds = %1
  tail call void @_ZN3gmx8internal13assertHandlerEPKcS2_S2_S2_i(ptr noundef nonnull @.str.25, ptr noundef nonnull @.str.26, ptr noundef nonnull @"__PRETTY_FUNCTION__._ZZNK3gmx4Bias25numEnergySubblocksToWriteEvENK3$_0clEv", ptr noundef nonnull @.str.2, i32 noundef 472) #16
  unreachable

5:                                                ; preds = %1
  %6 = getelementptr inbounds i8, ptr %3, i64 8
  %7 = load ptr, ptr %6, align 8
  %8 = load ptr, ptr %3, align 8
  %9 = ptrtoint ptr %7 to i64
  %10 = ptrtoint ptr %8 to i64
  %11 = sub i64 %9, %10
  %12 = lshr exact i64 %11, 5
  %13 = trunc i64 %12 to i32
  ret i32 %13
}